target datalayout = "e-m:e-p270:32:32-p271:32:32-p272:64:64-i64:64-i128:128-f80:128-n8:16:32:64-S128"
target triple = "x86_64-pc-linux-gnu"

%struct.pg_compress_specification = type { i32, i32, i32, i32, i8, ptr }
%struct._archiveHandle = type { %struct.Archive, i32, ptr, ptr, i64, i64, i32, %struct.sqlparseInfo, i64, i32, ptr, i64, i64, i64, ptr, ptr, ptr, ptr, ptr, ptr, ptr, ptr, ptr, ptr, ptr, ptr, ptr, ptr, ptr, ptr, ptr, ptr, ptr, ptr, ptr, ptr, ptr, ptr, ptr, ptr, ptr, ptr, ptr, ptr, i32, i32, i8, i32, i8, i32, ptr, ptr, ptr, ptr, i32, i32, ptr, ptr, ptr, %struct.pg_compress_specification, i8, i32, i32, ptr, ptr, ptr, ptr, ptr, i32, ptr, i64, i64, i32, i32, i32, i32, ptr, ptr }
%struct.Archive = type { ptr, ptr, i32, ptr, i32, i8, i32, i32, i32, ptr, i32, i8, ptr, ptr, i8, i32, ptr }
%struct.sqlparseInfo = type { i32, i8, ptr }

@.str.65 = private unnamed_addr constant [35 x i8] c"restoring large object with OID %u\00", align 1
@.str.66 = private unnamed_addr constant [37 x i8] c"could not create large object %u: %s\00", align 1
@.str.67 = private unnamed_addr constant [35 x i8] c"could not open large object %u: %s\00", align 1
@.str.68 = private unnamed_addr constant [60 x i8] c"SELECT pg_catalog.lo_open(pg_catalog.lo_create('%u'), %d);\0A\00", align 1
@.str.69 = private unnamed_addr constant [38 x i8] c"SELECT pg_catalog.lo_open('%u', %d);\0A\00", align 1

; Function Attrs: nounwind uwtable
define dso_local void @StartRestoreLO(ptr noundef %0, i32 noundef %1, i1 noundef zeroext %2) #0 {
  %4 = alloca ptr, align 8
  %5 = alloca i32, align 4
  %6 = alloca i8, align 1
  %7 = alloca i8, align 1
  %8 = alloca i32, align 4
  store ptr %0, ptr %4, align 8
  store i32 %1, ptr %5, align 4
  %9 = zext i1 %2 to i8
  store i8 %9, ptr %6, align 1
  call void @llvm.lifetime.start.p0(i64 1, ptr %7) #11
  %10 = load ptr, ptr %4, align 8
  %11 = getelementptr inbounds nuw %struct._archiveHandle, ptr %10, i32 0, i32 1
  %12 = load i32, ptr %11, align 8
  %13 = icmp slt i32 %12, 68608
  %14 = zext i1 %13 to i8
  store i8 %14, ptr %7, align 1
  call void @llvm.lifetime.start.p0(i64 4, ptr %8) #11
  %15 = load ptr, ptr %4, align 8
  %16 = getelementptr inbounds nuw %struct._archiveHandle, ptr %15, i32 0, i32 49
  %17 = load i32, ptr %16, align 4
  %18 = add i32 %17, 1
  store i32 %18, ptr %16, align 4
  %19 = load ptr, ptr %4, align 8
  %20 = getelementptr inbounds nuw %struct._archiveHandle, ptr %19, i32 0, i32 69
  %21 = load ptr, ptr %20, align 8
  %22 = icmp eq ptr %21, null
  br i1 %22, label %23, label %29

23:                                               ; preds = %3
  %24 = load ptr, ptr %4, align 8
  %25 = getelementptr inbounds nuw %struct._archiveHandle, ptr %24, i32 0, i32 71
  store i64 16384, ptr %25, align 8
  %26 = call ptr @pg_malloc(i64 noundef 16384)
  %27 = load ptr, ptr %4, align 8
  %28 = getelementptr inbounds nuw %struct._archiveHandle, ptr %27, i32 0, i32 69
  store ptr %26, ptr %28, align 8
  br label %29

29:                                               ; preds = %23, %3
  %30 = load ptr, ptr %4, align 8
  %31 = getelementptr inbounds nuw %struct._archiveHandle, ptr %30, i32 0, i32 70
  store i64 0, ptr %31, align 8
  %32 = load i32, ptr %5, align 4
  call void (i32, i32, ptr, ...) @pg_log_generic(i32 noundef 2, i32 noundef 0, ptr noundef @.str.65, i32 noundef %32)
  %33 = load i8, ptr %7, align 1, !range !4, !noundef !5
  %34 = trunc i8 %33 to i1
  br i1 %34, label %35, label %41

35:                                               ; preds = %29
  %36 = load i8, ptr %6, align 1, !range !4, !noundef !5
  %37 = trunc i8 %36 to i1
  br i1 %37, label %38, label %41

38:                                               ; preds = %35
  %39 = load ptr, ptr %4, align 8
  %40 = load i32, ptr %5, align 4
  call void @DropLOIfExists(ptr noundef %39, i32 noundef %40)
  br label %41

41:                                               ; preds = %38, %35, %29
  %42 = load ptr, ptr %4, align 8
  %43 = getelementptr inbounds nuw %struct._archiveHandle, ptr %42, i32 0, i32 42
  %44 = load ptr, ptr %43, align 8
  %45 = icmp ne ptr %44, null
  br i1 %45, label %46, label %93

46:                                               ; preds = %41
  %47 = load i8, ptr %7, align 1, !range !4, !noundef !5
  %48 = trunc i8 %47 to i1
  br i1 %48, label %49, label %71

49:                                               ; preds = %46
  %50 = load ptr, ptr %4, align 8
  %51 = getelementptr inbounds nuw %struct._archiveHandle, ptr %50, i32 0, i32 42
  %52 = load ptr, ptr %51, align 8
  %53 = load i32, ptr %5, align 4
  %54 = call i32 @lo_create(ptr noundef %52, i32 noundef %53)
  store i32 %54, ptr %8, align 4
  %55 = load i32, ptr %8, align 4
  %56 = icmp eq i32 %55, 0
  br i1 %56, label %61, label %57

57:                                               ; preds = %49
  %58 = load i32, ptr %8, align 4
  %59 = load i32, ptr %5, align 4
  %60 = icmp ne i32 %58, %59
  br i1 %60, label %61, label %70

61:                                               ; preds = %57, %49
  br label %62

62:                                               ; preds = %61
  %63 = load i32, ptr %5, align 4
  %64 = load ptr, ptr %4, align 8
  %65 = getelementptr inbounds nuw %struct._archiveHandle, ptr %64, i32 0, i32 42
  %66 = load ptr, ptr %65, align 8
  %67 = call ptr @PQerrorMessage(ptr noundef %66)
  call void (i32, i32, ptr, ...) @pg_log_generic(i32 noundef 4, i32 noundef 0, ptr noundef @.str.66, i32 noundef %63, ptr noundef %67)
  call void @exit_nicely(i32 noundef 1) #12
  unreachable

68:                                               ; No predecessors!
  br label %69

69:                                               ; preds = %68
  br label %70

70:                                               ; preds = %69, %57
  br label %71

71:                                               ; preds = %70, %46
  %72 = load ptr, ptr %4, align 8
  %73 = getelementptr inbounds nuw %struct._archiveHandle, ptr %72, i32 0, i32 42
  %74 = load ptr, ptr %73, align 8
  %75 = load i32, ptr %5, align 4
  %76 = call i32 @lo_open(ptr noundef %74, i32 noundef %75, i32 noundef 131072)
  %77 = load ptr, ptr %4, align 8
  %78 = getelementptr inbounds nuw %struct._archiveHandle, ptr %77, i32 0, i32 47
  store i32 %76, ptr %78, align 4
  %79 = load ptr, ptr %4, align 8
  %80 = getelementptr inbounds nuw %struct._archiveHandle, ptr %79, i32 0, i32 47
  %81 = load i32, ptr %80, align 4
  %82 = icmp eq i32 %81, -1
  br i1 %82, label %83, label %92

83:                                               ; preds = %71
  br label %84

84:                                               ; preds = %83
  %85 = load i32, ptr %5, align 4
  %86 = load ptr, ptr %4, align 8
  %87 = getelementptr inbounds nuw %struct._archiveHandle, ptr %86, i32 0, i32 42
  %88 = load ptr, ptr %87, align 8
  %89 = call ptr @PQerrorMessage(ptr noundef %88)
  call void (i32, i32, ptr, ...) @pg_log_generic(i32 noundef 4, i32 noundef 0, ptr noundef @.str.67, i32 noundef %85, ptr noundef %89)
  call void @exit_nicely(i32 noundef 1) #12
  unreachable

90:                                               ; No predecessors!
  br label %91

91:                                               ; preds = %90
  br label %92

92:                                               ; preds = %91, %71
  br label %105

93:                                               ; preds = %41
  %94 = load i8, ptr %7, align 1, !range !4, !noundef !5
  %95 = trunc i8 %94 to i1
  br i1 %95, label %96, label %100

96:                                               ; preds = %93
  %97 = load ptr, ptr %4, align 8
  %98 = load i32, ptr %5, align 4
  %99 = call i32 (ptr, ptr, ...) @ahprintf(ptr noundef %97, ptr noundef @.str.68, i32 noundef %98, i32 noundef 131072)
  br label %104

100:                                              ; preds = %93
  %101 = load ptr, ptr %4, align 8
  %102 = load i32, ptr %5, align 4
  %103 = call i32 (ptr, ptr, ...) @ahprintf(ptr noundef %101, ptr noundef @.str.69, i32 noundef %102, i32 noundef 131072)
  br label %104

104:                                              ; preds = %100, %96
  br label %105

105:                                              ; preds = %104, %92
  %106 = load ptr, ptr %4, align 8
  %107 = getelementptr inbounds nuw %struct._archiveHandle, ptr %106, i32 0, i32 48
  store i8 1, ptr %107, align 8
  call void @llvm.lifetime.end.p0(i64 4, ptr %8) #11
  call void @llvm.lifetime.end.p0(i64 1, ptr %7) #11
  ret void
}