; Function Attrs: nounwind uwtable
define dso_local void @StartRestoreLO(ptr noundef initializes((648, 656)) %0, i32 noundef %1, i1 noundef zeroext %2) local_unnamed_addr #0 {
  %4 = getelementptr inbounds nuw i8, ptr %0, i64 104
  %5 = load i32, ptr %4, align 8
  %6 = icmp slt i32 %5, 68608
  %7 = getelementptr inbounds nuw i8, ptr %0, i64 476
  %8 = load i32, ptr %7, align 4
  %9 = add i32 %8, 1
  store i32 %9, ptr %7, align 4
  %10 = getelementptr inbounds nuw i8, ptr %0, i64 640
  %11 = load ptr, ptr %10, align 8
  %12 = icmp eq ptr %11, null
  br i1 %12, label %13, label %16

13:                                               ; preds = %3
  %14 = getelementptr inbounds nuw i8, ptr %0, i64 656
  store i64 16384, ptr %14, align 8
  %15 = tail call ptr @pg_malloc(i64 noundef 16384) #22
  store ptr %15, ptr %10, align 8
  br label %16

16:                                               ; preds = %13, %3
  %17 = getelementptr inbounds nuw i8, ptr %0, i64 648
  store i64 0, ptr %17, align 8
  tail call void (i32, i32, ptr, ...) @pg_log_generic(i32 noundef 2, i32 noundef 0, ptr noundef nonnull @.str.65, i32 noundef %1) #22
  %brmerge.not = and i1 %2, %6
  br i1 %brmerge.not, label %18, label %19

18:                                               ; preds = %16
  tail call void @DropLOIfExists(ptr noundef nonnull %0, i32 noundef %1) #22
  br label %19

19:                                               ; preds = %16, %18
  %20 = getelementptr inbounds nuw i8, ptr %0, i64 440
  %21 = load ptr, ptr %20, align 8
  %.not = icmp eq ptr %21, null
  br i1 %.not, label %.sink.split, label %22

22:                                               ; preds = %19
  br i1 %6, label %23, label %28

23:                                               ; preds = %22
  %24 = tail call i32 @lo_create(ptr noundef nonnull %21, i32 noundef %1) #22
  %25 = icmp ne i32 %24, 0
  %.not32 = icmp eq i32 %24, %1
  %or.cond = and i1 %25, %.not32
  %.pre = load ptr, ptr %20, align 8
  br i1 %or.cond, label %28, label %26

26:                                               ; preds = %23
  %27 = tail call ptr @PQerrorMessage(ptr noundef %.pre) #22
  tail call void (i32, i32, ptr, ...) @pg_log_generic(i32 noundef 4, i32 noundef 0, ptr noundef nonnull @.str.66, i32 noundef %1, ptr noundef %27) #22
  tail call void @exit_nicely(i32 noundef 1) #23
  unreachable

28:                                               ; preds = %23, %22
  %29 = phi ptr [ %.pre, %23 ], [ %21, %22 ]
  %30 = tail call i32 @lo_open(ptr noundef %29, i32 noundef %1, i32 noundef 131072) #22
  %31 = getelementptr inbounds nuw i8, ptr %0, i64 468
  store i32 %30, ptr %31, align 4
  %32 = icmp eq i32 %30, -1
  br i1 %32, label %33, label %37

33:                                               ; preds = %28
  %34 = load ptr, ptr %20, align 8
  %35 = tail call ptr @PQerrorMessage(ptr noundef %34) #22
  tail call void (i32, i32, ptr, ...) @pg_log_generic(i32 noundef 4, i32 noundef 0, ptr noundef nonnull @.str.67, i32 noundef %1, ptr noundef %35) #22
  tail call void @exit_nicely(i32 noundef 1) #23
  unreachable

.sink.split:                                      ; preds = %19
  %.str.68..str.69 = select i1 %6, ptr @.str.68, ptr @.str.69
  %36 = tail call i32 (ptr, ptr, ...) @ahprintf(ptr noundef nonnull %0, ptr noundef nonnull %.str.68..str.69, i32 noundef %1, i32 noundef 131072)
  br label %37

37:                                               ; preds = %.sink.split, %28
  %38 = getelementptr inbounds nuw i8, ptr %0, i64 472
  store i8 1, ptr %38, align 8
  ret void
}